target datalayout = "e-m:e-p270:32:32-p271:32:32-p272:64:64-i64:64-i128:128-f80:128-n8:16:32:64-S128"
target triple = "x86_64-pc-linux-gnu"

%"struct.pkpy::StrName" = type { i16 }
%"struct.pkpy::Type" = type { i16 }
%"class.std::basic_string_view" = type { i64, ptr }
%class.anon.70 = type { i8 }
%"class.pkpy::VM" = type <{ ptr, ptr, %"struct.pkpy::ManagedHeap", %"struct.pkpy::ValueStack", %"struct.pkpy::CallStack", %"class.std::vector.5", %"struct.pkpy::NameDictImpl", %"class.std::map", %struct.anon, ptr, ptr, ptr, ptr, ptr, ptr, ptr, ptr, %"class.std::map.19", %"class.std::set", %"struct.pkpy::ImportContext", ptr, ptr, ptr, %"class.std::map.43", %"class.std::map.51", %"class.std::shared_ptr", ptr, ptr, ptr, ptr, i8, [7 x i8] }>
%"struct.pkpy::ManagedHeap" = type <{ %"class.std::vector", %"class.std::vector", ptr, ptr, ptr, i32, i32, i32, [4 x i8] }>
%"class.std::vector" = type { %"struct.std::_Vector_base" }
%"struct.std::_Vector_base" = type { %"struct.std::_Vector_base<pkpy::PyObject *, std::allocator<pkpy::PyObject *>>::_Vector_impl" }
%"struct.std::_Vector_base<pkpy::PyObject *, std::allocator<pkpy::PyObject *>>::_Vector_impl" = type { %"struct.std::_Vector_base<pkpy::PyObject *, std::allocator<pkpy::PyObject *>>::_Vector_impl_data" }
%"struct.std::_Vector_base<pkpy::PyObject *, std::allocator<pkpy::PyObject *>>::_Vector_impl_data" = type { ptr, ptr, ptr }
%"struct.pkpy::ValueStack" = type { [33024 x ptr], ptr, ptr }
%"struct.pkpy::CallStack" = type <{ ptr, i32, [4 x i8] }>
%"class.std::vector.5" = type { %"struct.std::_Vector_base.6" }
%"struct.std::_Vector_base.6" = type { %"struct.std::_Vector_base<pkpy::PyTypeInfo, std::allocator<pkpy::PyTypeInfo>>::_Vector_impl" }
%"struct.std::_Vector_base<pkpy::PyTypeInfo, std::allocator<pkpy::PyTypeInfo>>::_Vector_impl" = type { %"struct.std::_Vector_base<pkpy::PyTypeInfo, std::allocator<pkpy::PyTypeInfo>>::_Vector_impl_data" }
%"struct.std::_Vector_base<pkpy::PyTypeInfo, std::allocator<pkpy::PyTypeInfo>>::_Vector_impl_data" = type { ptr, ptr, ptr }
%"struct.pkpy::NameDictImpl" = type { %union.anon.10 }
%union.anon.10 = type { %"struct.pkpy::SmallNameDict" }
%"struct.pkpy::SmallNameDict" = type { i8, i16, [8 x %"struct.pkpy::StrName"], [8 x ptr] }
%"class.std::map" = type { %"class.std::_Rb_tree" }
%"class.std::_Rb_tree" = type { %"struct.std::_Rb_tree<pkpy::StrName, std::pair<const pkpy::StrName, pkpy::Str>, std::_Select1st<std::pair<const pkpy::StrName, pkpy::Str>>, std::less<pkpy::StrName>>::_Rb_tree_impl" }
%"struct.std::_Rb_tree<pkpy::StrName, std::pair<const pkpy::StrName, pkpy::Str>, std::_Select1st<std::pair<const pkpy::StrName, pkpy::Str>>, std::less<pkpy::StrName>>::_Rb_tree_impl" = type { %"struct.std::_Rb_tree_key_compare", %"struct.std::_Rb_tree_header" }
%"struct.std::_Rb_tree_key_compare" = type { %"struct.std::less" }
%"struct.std::less" = type { i8 }
%"struct.std::_Rb_tree_header" = type { %"struct.std::_Rb_tree_node_base", i64 }
%"struct.std::_Rb_tree_node_base" = type { i32, ptr, ptr, ptr }
%struct.anon = type { ptr, %"class.pkpy::stack_no_copy" }
%"class.pkpy::stack_no_copy" = type { %"class.pkpy::stack" }
%"class.pkpy::stack" = type { %"class.std::vector.14" }
%"class.std::vector.14" = type { %"struct.std::_Vector_base.15" }
%"struct.std::_Vector_base.15" = type { %"struct.std::_Vector_base<pkpy::ArgsView, std::allocator<pkpy::ArgsView>>::_Vector_impl" }
%"struct.std::_Vector_base<pkpy::ArgsView, std::allocator<pkpy::ArgsView>>::_Vector_impl" = type { %"struct.std::_Vector_base<pkpy::ArgsView, std::allocator<pkpy::ArgsView>>::_Vector_impl_data" }
%"struct.std::_Vector_base<pkpy::ArgsView, std::allocator<pkpy::ArgsView>>::_Vector_impl_data" = type { ptr, ptr, ptr }
%"class.std::map.19" = type { %"class.std::_Rb_tree.20" }
%"class.std::_Rb_tree.20" = type { %"struct.std::_Rb_tree<const std::type_index, std::pair<const std::type_index, pkpy::Type>, std::_Select1st<std::pair<const std::type_index, pkpy::Type>>, std::less<const std::type_index>>::_Rb_tree_impl" }
%"struct.std::_Rb_tree<const std::type_index, std::pair<const std::type_index, pkpy::Type>, std::_Select1st<std::pair<const std::type_index, pkpy::Type>>, std::less<const std::type_index>>::_Rb_tree_impl" = type { %"struct.std::_Rb_tree_key_compare.24", %"struct.std::_Rb_tree_header" }
%"struct.std::_Rb_tree_key_compare.24" = type { %"struct.std::less.25" }
%"struct.std::less.25" = type { i8 }
%"class.std::set" = type { %"class.std::_Rb_tree.27" }
%"class.std::_Rb_tree.27" = type { %"struct.std::_Rb_tree<pkpy::PyObject *, pkpy::PyObject *, std::_Identity<pkpy::PyObject *>, std::less<pkpy::PyObject *>>::_Rb_tree_impl" }
%"struct.std::_Rb_tree<pkpy::PyObject *, pkpy::PyObject *, std::_Identity<pkpy::PyObject *>, std::less<pkpy::PyObject *>>::_Rb_tree_impl" = type { %"struct.std::_Rb_tree_key_compare.31", %"struct.std::_Rb_tree_header" }
%"struct.std::_Rb_tree_key_compare.31" = type { %"struct.std::less.32" }
%"struct.std::less.32" = type { i8 }
%"struct.pkpy::ImportContext" = type { %"class.std::vector.34", %"class.std::vector.39" }
%"class.std::vector.34" = type { %"struct.std::_Vector_base.35" }
%"struct.std::_Vector_base.35" = type { %"struct.std::_Vector_base<pkpy::Str, std::allocator<pkpy::Str>>::_Vector_impl" }
%"struct.std::_Vector_base<pkpy::Str, std::allocator<pkpy::Str>>::_Vector_impl" = type { %"struct.std::_Vector_base<pkpy::Str, std::allocator<pkpy::Str>>::_Vector_impl_data" }
%"struct.std::_Vector_base<pkpy::Str, std::allocator<pkpy::Str>>::_Vector_impl_data" = type { ptr, ptr, ptr }
%"class.std::vector.39" = type { %"struct.std::_Bvector_base" }
%"struct.std::_Bvector_base" = type { %"struct.std::_Bvector_base<std::allocator<bool>>::_Bvector_impl" }
%"struct.std::_Bvector_base<std::allocator<bool>>::_Bvector_impl" = type { %"struct.std::_Bvector_base<std::allocator<bool>>::_Bvector_impl_data" }
%"struct.std::_Bvector_base<std::allocator<bool>>::_Bvector_impl_data" = type { %"struct.std::_Bit_iterator", %"struct.std::_Bit_iterator", ptr }
%"struct.std::_Bit_iterator" = type { %"struct.std::_Bit_iterator_base.base", [4 x i8] }
%"struct.std::_Bit_iterator_base.base" = type <{ ptr, i32 }>
%"class.std::map.43" = type { %"class.std::_Rb_tree.44" }
%"class.std::_Rb_tree.44" = type { %"struct.std::_Rb_tree<std::basic_string_view<char>, std::pair<const std::basic_string_view<char>, std::shared_ptr<pkpy::CodeObject>>, std::_Select1st<std::pair<const std::basic_string_view<char>, std::shared_ptr<pkpy::CodeObject>>>, std::less<std::basic_string_view<char>>>::_Rb_tree_impl" }
%"struct.std::_Rb_tree<std::basic_string_view<char>, std::pair<const std::basic_string_view<char>, std::shared_ptr<pkpy::CodeObject>>, std::_Select1st<std::pair<const std::basic_string_view<char>, std::shared_ptr<pkpy::CodeObject>>>, std::less<std::basic_string_view<char>>>::_Rb_tree_impl" = type { %"struct.std::_Rb_tree_key_compare.48", %"struct.std::_Rb_tree_header" }
%"struct.std::_Rb_tree_key_compare.48" = type { %"struct.std::less.49" }
%"struct.std::less.49" = type { i8 }
%"class.std::map.51" = type { %"class.std::_Rb_tree.52" }
%"class.std::_Rb_tree.52" = type { %"struct.std::_Rb_tree<std::basic_string_view<char>, std::pair<const std::basic_string_view<char>, pkpy::PyObject *>, std::_Select1st<std::pair<const std::basic_string_view<char>, pkpy::PyObject *>>, std::less<std::basic_string_view<char>>>::_Rb_tree_impl" }
%"struct.std::_Rb_tree<std::basic_string_view<char>, std::pair<const std::basic_string_view<char>, pkpy::PyObject *>, std::_Select1st<std::pair<const std::basic_string_view<char>, pkpy::PyObject *>>, std::less<std::basic_string_view<char>>>::_Rb_tree_impl" = type { %"struct.std::_Rb_tree_key_compare.48", %"struct.std::_Rb_tree_header" }
%"class.std::shared_ptr" = type { %"class.std::__shared_ptr" }
%"class.std::__shared_ptr" = type { ptr, %"class.std::__shared_count" }
%"class.std::__shared_count" = type { ptr }
%"struct.pkpy::PyObject" = type { ptr, i8, i8, %"struct.pkpy::Type", ptr }
%"struct.pkpy::ArgsView" = type { ptr, ptr }

@.str.7 = private unnamed_addr constant [3 x i8] c"io\00", align 1
@.str.9 = private unnamed_addr constant [7 x i8] c"FileIO\00", align 1
@"_ZZZN4pkpy13add_module_ioEPNS_2VMEENK3$_0clES1_NS_8ArgsViewEE4m_io" = internal global %"struct.pkpy::StrName" zeroinitializer, align 2
@"_ZGVZZN4pkpy13add_module_ioEPNS_2VMEENK3$_0clES1_NS_8ArgsViewEE4m_io" = internal global i64 0, align 8
@"_ZZZN4pkpy13add_module_ioEPNS_2VMEENK3$_0clES1_NS_8ArgsViewEE8m_FileIO" = internal global %"struct.pkpy::StrName" zeroinitializer, align 2
@"_ZGVZZN4pkpy13add_module_ioEPNS_2VMEENK3$_0clES1_NS_8ArgsViewEE8m_FileIO" = internal global i64 0, align 8
@_ZN4pkpy7PY_NULLE = external constant ptr, align 8

; Function Attrs: mustprogress nounwind uwtable
define linkonce_odr noundef i64 @_ZNSt11char_traitsIcE6lengthEPKc(ptr noundef %0) #5 comdat align 2 {
  %2 = alloca ptr, align 8
  store ptr %0, ptr %2, align 8
  %3 = load ptr, ptr %2, align 8
  %4 = call i64 @strlen(ptr noundef %3) #3
  ret i64 %4
}

; Function Attrs: mustprogress nounwind uwtable
define linkonce_odr void @_ZN4pkpy2VM14__push_varargsEPNS_8PyObjectES2_(ptr noundef nonnull align 8 dereferenceable(264913) %0, ptr noundef %1, ptr noundef %2) #5 comdat align 2 {
  %4 = alloca ptr, align 8
  %5 = alloca ptr, align 8
  %6 = alloca ptr, align 8
  store ptr %0, ptr %4, align 8
  store ptr %1, ptr %5, align 8
  store ptr %2, ptr %6, align 8
  %7 = load ptr, ptr %4, align 8
  %8 = getelementptr inbounds %"class.pkpy::VM", ptr %7, i32 0, i32 3
  %9 = load ptr, ptr %5, align 8
  call void @_ZN4pkpy10ValueStack4pushEPNS_8PyObjectE(ptr noundef nonnull align 8 dereferenceable(264208) %8, ptr noundef %9)
  %10 = getelementptr inbounds %"class.pkpy::VM", ptr %7, i32 0, i32 3
  %11 = load ptr, ptr %6, align 8
  call void @_ZN4pkpy10ValueStack4pushEPNS_8PyObjectE(ptr noundef nonnull align 8 dereferenceable(264208) %10, ptr noundef %11)
  ret void
}

; Function Attrs: mustprogress nounwind uwtable
define linkonce_odr void @_ZN4pkpy10ValueStack4pushEPNS_8PyObjectE(ptr noundef nonnull align 8 dereferenceable(264208) %0, ptr noundef %1) #5 comdat align 2 {
  %3 = alloca ptr, align 8
  %4 = alloca ptr, align 8
  store ptr %0, ptr %3, align 8
  store ptr %1, ptr %4, align 8
  %5 = load ptr, ptr %3, align 8
  %6 = load ptr, ptr %4, align 8
  %7 = getelementptr inbounds %"struct.pkpy::ValueStack", ptr %5, i32 0, i32 1
  %8 = load ptr, ptr %7, align 8
  %9 = getelementptr inbounds ptr, ptr %8, i32 1
  store ptr %9, ptr %7, align 8
  store ptr %6, ptr %8, align 8
  ret void
}

; Function Attrs: mustprogress nounwind uwtable
define linkonce_odr void @_ZNSt17basic_string_viewIcSt11char_traitsIcEEC2EPKc(ptr noundef nonnull align 8 dereferenceable(16) %0, ptr noundef nonnull %1) unnamed_addr #5 comdat align 2 {
  %3 = alloca ptr, align 8
  %4 = alloca ptr, align 8
  store ptr %0, ptr %3, align 8
  store ptr %1, ptr %4, align 8
  %5 = load ptr, ptr %3, align 8
  %6 = getelementptr inbounds %"class.std::basic_string_view", ptr %5, i32 0, i32 0
  %7 = load ptr, ptr %4, align 8
  %8 = call noundef i64 @_ZNSt11char_traitsIcE6lengthEPKc(ptr noundef %7)
  store i64 %8, ptr %6, align 8
  %9 = getelementptr inbounds %"class.std::basic_string_view", ptr %5, i32 0, i32 1
  %10 = load ptr, ptr %4, align 8
  store ptr %10, ptr %9, align 8
  ret void
}

; Function Attrs: mustprogress uwtable
define linkonce_odr noundef ptr @_ZN4pkpy2VM4callIJPNS_8PyObjectES3_EEES3_S3_DpOT_(ptr noundef nonnull align 8 dereferenceable(264913) %0, ptr noundef %1, ptr noundef nonnull align 8 dereferenceable(8) %2, ptr noundef nonnull align 8 dereferenceable(8) %3) #4 comdat align 2 {
  %5 = alloca ptr, align 8
  %6 = alloca ptr, align 8
  %7 = alloca ptr, align 8
  %8 = alloca ptr, align 8
  store ptr %0, ptr %5, align 8
  store ptr %1, ptr %6, align 8
  store ptr %2, ptr %7, align 8
  store ptr %3, ptr %8, align 8
  %9 = load ptr, ptr %5, align 8
  %10 = getelementptr inbounds %"class.pkpy::VM", ptr %9, i32 0, i32 3
  %11 = load ptr, ptr %6, align 8
  call void @_ZN4pkpy10ValueStack4pushEPNS_8PyObjectE(ptr noundef nonnull align 8 dereferenceable(264208) %10, ptr noundef %11)
  %12 = getelementptr inbounds %"class.pkpy::VM", ptr %9, i32 0, i32 3
  %13 = load ptr, ptr @_ZN4pkpy7PY_NULLE, align 8
  call void @_ZN4pkpy10ValueStack4pushEPNS_8PyObjectE(ptr noundef nonnull align 8 dereferenceable(264208) %12, ptr noundef %13)
  %14 = load ptr, ptr %7, align 8
  %15 = load ptr, ptr %14, align 8
  %16 = load ptr, ptr %8, align 8
  %17 = load ptr, ptr %16, align 8
  call void @_ZN4pkpy2VM14__push_varargsEPNS_8PyObjectES2_(ptr noundef nonnull align 8 dereferenceable(264913) %9, ptr noundef %15, ptr noundef %17)
  %18 = call noundef ptr @_ZN4pkpy2VM10vectorcallEiib(ptr noundef nonnull align 8 dereferenceable(264913) %9, i32 noundef 2, i32 noundef 0, i1 noundef zeroext false)
  ret ptr %18
}

; Function Attrs: mustprogress nounwind uwtable
define linkonce_odr noundef ptr @_ZNK4pkpy8ArgsViewixEi(ptr noundef nonnull align 8 dereferenceable(16) %0, i32 noundef %1) #5 comdat align 2 {
  %3 = alloca ptr, align 8
  %4 = alloca i32, align 4
  store ptr %0, ptr %3, align 8
  store i32 %1, ptr %4, align 4
  %5 = load ptr, ptr %3, align 8
  %6 = getelementptr inbounds %"struct.pkpy::ArgsView", ptr %5, i32 0, i32 0
  %7 = load ptr, ptr %6, align 8
  %8 = load i32, ptr %4, align 4
  %9 = sext i32 %8 to i64
  %10 = getelementptr inbounds ptr, ptr %7, i64 %9
  %11 = load ptr, ptr %10, align 8
  ret ptr %11
}

; Function Attrs: mustprogress uwtable
define linkonce_odr noundef ptr @_ZNK4pkpy8PyObject4attrENS_7StrNameE(ptr noundef nonnull align 8 dereferenceable(24) %0, i16 %1) #4 comdat align 2 {
  %3 = alloca %"struct.pkpy::StrName", align 2
  %4 = alloca ptr, align 8
  %5 = alloca %"struct.pkpy::StrName", align 2
  %6 = getelementptr inbounds %"struct.pkpy::StrName", ptr %3, i32 0, i32 0
  store i16 %1, ptr %6, align 2
  store ptr %0, ptr %4, align 8
  %7 = load ptr, ptr %4, align 8
  %8 = getelementptr inbounds %"struct.pkpy::PyObject", ptr %7, i32 0, i32 4
  %9 = load ptr, ptr %8, align 8
  call void @llvm.memcpy.p0.p0.i64(ptr align 2 %5, ptr align 2 %3, i64 2, i1 false)
  %10 = getelementptr inbounds %"struct.pkpy::StrName", ptr %5, i32 0, i32 0
  %11 = load i16, ptr %10, align 2
  %12 = call noundef ptr @_ZNK4pkpy12NameDictImplIPNS_8PyObjectEEixENS_7StrNameE(ptr noundef nonnull align 8 dereferenceable(88) %9, i16 %11)
  ret ptr %12
}

; Function Attrs: mustprogress uwtable
define linkonce_odr void @_ZN4pkpy7StrNameC2EPKc(ptr noundef nonnull align 2 dereferenceable(2) %0, ptr noundef %1) unnamed_addr #4 comdat align 2 {
  %3 = alloca ptr, align 8
  %4 = alloca ptr, align 8
  %5 = alloca %"struct.pkpy::StrName", align 2
  %6 = alloca %"class.std::basic_string_view", align 8
  store ptr %0, ptr %3, align 8
  store ptr %1, ptr %4, align 8
  %7 = load ptr, ptr %3, align 8
  %8 = getelementptr inbounds %"struct.pkpy::StrName", ptr %7, i32 0, i32 0
  %9 = load ptr, ptr %4, align 8
  call void @_ZNSt17basic_string_viewIcSt11char_traitsIcEEC2EPKc(ptr noundef nonnull align 8 dereferenceable(16) %6, ptr noundef %9) #3
  %10 = getelementptr inbounds { i64, ptr }, ptr %6, i32 0, i32 0
  %11 = load i64, ptr %10, align 8
  %12 = getelementptr inbounds { i64, ptr }, ptr %6, i32 0, i32 1
  %13 = load ptr, ptr %12, align 8
  %14 = call i16 @_ZN4pkpy7StrName3getESt17basic_string_viewIcSt11char_traitsIcEE(i64 %11, ptr %13)
  %15 = getelementptr inbounds %"struct.pkpy::StrName", ptr %5, i32 0, i32 0
  store i16 %14, ptr %15, align 2
  %16 = getelementptr inbounds %"struct.pkpy::StrName", ptr %5, i32 0, i32 0
  %17 = load i16, ptr %16, align 2
  store i16 %17, ptr %8, align 2
  ret void
}

; Function Attrs: mustprogress uwtable
define internal noundef ptr @"_ZZN4pkpy13add_module_ioEPNS_2VMEENK3$_0clES1_NS_8ArgsViewE"(ptr noundef nonnull align 1 dereferenceable(1) %0, ptr noundef %1, ptr %2, ptr %3) #4 align 2 personality ptr @__gxx_personality_v0 {
  %5 = alloca %"struct.pkpy::ArgsView", align 8
  %6 = alloca ptr, align 8
  %7 = alloca ptr, align 8
  %8 = alloca ptr, align 8
  %9 = alloca i32, align 4
  %10 = alloca %"struct.pkpy::StrName", align 2
  %11 = alloca %"struct.pkpy::StrName", align 2
  %12 = alloca ptr, align 8
  %13 = alloca ptr, align 8
  %14 = getelementptr inbounds { ptr, ptr }, ptr %5, i32 0, i32 0
  store ptr %2, ptr %14, align 8
  %15 = getelementptr inbounds { ptr, ptr }, ptr %5, i32 0, i32 1
  store ptr %3, ptr %15, align 8
  store ptr %0, ptr %6, align 8
  store ptr %1, ptr %7, align 8
  %16 = load atomic i8, ptr @"_ZGVZZN4pkpy13add_module_ioEPNS_2VMEENK3$_0clES1_NS_8ArgsViewEE4m_io" acquire, align 8
  %17 = icmp eq i8 %16, 0
  br i1 %17, label %18, label %23, !prof !11

18:                                               ; preds = %4
  %19 = call i32 @__cxa_guard_acquire(ptr @"_ZGVZZN4pkpy13add_module_ioEPNS_2VMEENK3$_0clES1_NS_8ArgsViewEE4m_io") #3
  %20 = icmp ne i32 %19, 0
  br i1 %20, label %21, label %23

21:                                               ; preds = %18
  invoke void @_ZN4pkpy7StrNameC2EPKc(ptr noundef nonnull align 2 dereferenceable(2) @"_ZZZN4pkpy13add_module_ioEPNS_2VMEENK3$_0clES1_NS_8ArgsViewEE4m_io", ptr noundef @.str.7)
          to label %22 unwind label %44

22:                                               ; preds = %21
  call void @__cxa_guard_release(ptr @"_ZGVZZN4pkpy13add_module_ioEPNS_2VMEENK3$_0clES1_NS_8ArgsViewEE4m_io") #3
  br label %23

23:                                               ; preds = %22, %18, %4
  %24 = load atomic i8, ptr @"_ZGVZZN4pkpy13add_module_ioEPNS_2VMEENK3$_0clES1_NS_8ArgsViewEE8m_FileIO" acquire, align 8
  %25 = icmp eq i8 %24, 0
  br i1 %25, label %26, label %31, !prof !11

26:                                               ; preds = %23
  %27 = call i32 @__cxa_guard_acquire(ptr @"_ZGVZZN4pkpy13add_module_ioEPNS_2VMEENK3$_0clES1_NS_8ArgsViewEE8m_FileIO") #3
  %28 = icmp ne i32 %27, 0
  br i1 %28, label %29, label %31

29:                                               ; preds = %26
  invoke void @_ZN4pkpy7StrNameC2EPKc(ptr noundef nonnull align 2 dereferenceable(2) @"_ZZZN4pkpy13add_module_ioEPNS_2VMEENK3$_0clES1_NS_8ArgsViewEE8m_FileIO", ptr noundef @.str.9)
          to label %30 unwind label %48

30:                                               ; preds = %29
  call void @__cxa_guard_release(ptr @"_ZGVZZN4pkpy13add_module_ioEPNS_2VMEENK3$_0clES1_NS_8ArgsViewEE8m_FileIO") #3
  br label %31

31:                                               ; preds = %30, %26, %23
  %32 = load ptr, ptr %7, align 8
  %33 = load ptr, ptr %7, align 8
  %34 = getelementptr inbounds %"class.pkpy::VM", ptr %33, i32 0, i32 6
  call void @llvm.memcpy.p0.p0.i64(ptr align 2 %10, ptr align 2 @"_ZZZN4pkpy13add_module_ioEPNS_2VMEENK3$_0clES1_NS_8ArgsViewEE4m_io", i64 2, i1 false)
  %35 = getelementptr inbounds %"struct.pkpy::StrName", ptr %10, i32 0, i32 0
  %36 = load i16, ptr %35, align 2
  %37 = call noundef ptr @_ZNK4pkpy12NameDictImplIPNS_8PyObjectEEixENS_7StrNameE(ptr noundef nonnull align 8 dereferenceable(88) %34, i16 %36)
  call void @llvm.memcpy.p0.p0.i64(ptr align 2 %11, ptr align 2 @"_ZZZN4pkpy13add_module_ioEPNS_2VMEENK3$_0clES1_NS_8ArgsViewEE8m_FileIO", i64 2, i1 false)
  %38 = getelementptr inbounds %"struct.pkpy::StrName", ptr %11, i32 0, i32 0
  %39 = load i16, ptr %38, align 2
  %40 = call noundef ptr @_ZNK4pkpy8PyObject4attrENS_7StrNameE(ptr noundef nonnull align 8 dereferenceable(24) %37, i16 %39)
  %41 = call noundef ptr @_ZNK4pkpy8ArgsViewixEi(ptr noundef nonnull align 8 dereferenceable(16) %5, i32 noundef 0)
  store ptr %41, ptr %12, align 8
  %42 = call noundef ptr @_ZNK4pkpy8ArgsViewixEi(ptr noundef nonnull align 8 dereferenceable(16) %5, i32 noundef 1)
  store ptr %42, ptr %13, align 8
  %43 = call noundef ptr @_ZN4pkpy2VM4callIJPNS_8PyObjectES3_EEES3_S3_DpOT_(ptr noundef nonnull align 8 dereferenceable(264913) %32, ptr noundef %40, ptr noundef nonnull align 8 dereferenceable(8) %12, ptr noundef nonnull align 8 dereferenceable(8) %13)
  ret ptr %43

44:                                               ; preds = %21
  %45 = landingpad { ptr, i32 }
          cleanup
  %46 = extractvalue { ptr, i32 } %45, 0
  store ptr %46, ptr %8, align 8
  %47 = extractvalue { ptr, i32 } %45, 1
  store i32 %47, ptr %9, align 4
  call void @__cxa_guard_abort(ptr @"_ZGVZZN4pkpy13add_module_ioEPNS_2VMEENK3$_0clES1_NS_8ArgsViewEE4m_io") #3
  br label %52

48:                                               ; preds = %29
  %49 = landingpad { ptr, i32 }
          cleanup
  %50 = extractvalue { ptr, i32 } %49, 0
  store ptr %50, ptr %8, align 8
  %51 = extractvalue { ptr, i32 } %49, 1
  store i32 %51, ptr %9, align 4
  call void @__cxa_guard_abort(ptr @"_ZGVZZN4pkpy13add_module_ioEPNS_2VMEENK3$_0clES1_NS_8ArgsViewEE8m_FileIO") #3
  br label %52

52:                                               ; preds = %48, %44
  %53 = load ptr, ptr %8, align 8
  %54 = load i32, ptr %9, align 4
  %55 = insertvalue { ptr, i32 } poison, ptr %53, 0
  %56 = insertvalue { ptr, i32 } %55, i32 %54, 1
  resume { ptr, i32 } %56
}

; Function Attrs: mustprogress uwtable
define internal noundef ptr @"_ZZN4pkpy13add_module_ioEPNS_2VMEEN3$_08__invokeES1_NS_8ArgsViewE"(ptr noundef %0, ptr %1, ptr %2) #4 align 2 {
  %4 = alloca %"struct.pkpy::ArgsView", align 8
  %5 = alloca ptr, align 8
  %6 = alloca %class.anon.70, align 1
  %7 = getelementptr inbounds { ptr, ptr }, ptr %4, i32 0, i32 0
  store ptr %1, ptr %7, align 8
  %8 = getelementptr inbounds { ptr, ptr }, ptr %4, i32 0, i32 1
  store ptr %2, ptr %8, align 8
  store ptr %0, ptr %5, align 8
  %9 = load ptr, ptr %5, align 8
  %10 = getelementptr inbounds { ptr, ptr }, ptr %4, i32 0, i32 0
  %11 = load ptr, ptr %10, align 8
  %12 = getelementptr inbounds { ptr, ptr }, ptr %4, i32 0, i32 1
  %13 = load ptr, ptr %12, align 8
  %14 = call noundef ptr @"_ZZN4pkpy13add_module_ioEPNS_2VMEENK3$_0clES1_NS_8ArgsViewE"(ptr noundef nonnull align 1 dereferenceable(1) %6, ptr noundef %9, ptr %11, ptr %13)
  ret ptr %14
}