; Function Attrs: mustprogress uwtable
define internal noundef ptr @"_ZZN4pkpy13add_module_ioEPNS_2VMEEN3$_08__invokeES1_NS_8ArgsViewE"(ptr noundef %0, ptr readonly captures(none) %1, ptr readnone captures(none) %2) #3 align 2 personality ptr @__gxx_personality_v0 {
  %4 = load atomic i8, ptr @"_ZGVZZN4pkpy13add_module_ioEPNS_2VMEENK3$_0clES1_NS_8ArgsViewEE4m_io" acquire, align 8
  %5 = icmp eq i8 %4, 0
  br i1 %5, label %6, label %11, !prof !16

6:                                                ; preds = %3
  %7 = tail call i32 @__cxa_guard_acquire(ptr nonnull @"_ZGVZZN4pkpy13add_module_ioEPNS_2VMEENK3$_0clES1_NS_8ArgsViewEE4m_io") #26
  %.not.i = icmp eq i32 %7, 0
  br i1 %.not.i, label %11, label %8

8:                                                ; preds = %6
  %9 = invoke i16 @_ZN4pkpy7StrName3getESt17basic_string_viewIcSt11char_traitsIcEE(i64 2, ptr nonnull @.str.7)
          to label %10 unwind label %19

10:                                               ; preds = %8
  store i16 %9, ptr @"_ZZZN4pkpy13add_module_ioEPNS_2VMEENK3$_0clES1_NS_8ArgsViewEE4m_io.0", align 2
  tail call void @__cxa_guard_release(ptr nonnull @"_ZGVZZN4pkpy13add_module_ioEPNS_2VMEENK3$_0clES1_NS_8ArgsViewEE4m_io") #26
  br label %11

11:                                               ; preds = %10, %6, %3
  %12 = load atomic i8, ptr @"_ZGVZZN4pkpy13add_module_ioEPNS_2VMEENK3$_0clES1_NS_8ArgsViewEE8m_FileIO" acquire, align 8
  %13 = icmp eq i8 %12, 0
  br i1 %13, label %14, label %"_ZZN4pkpy13add_module_ioEPNS_2VMEENK3$_0clES1_NS_8ArgsViewE.exit", !prof !16

14:                                               ; preds = %11
  %15 = tail call i32 @__cxa_guard_acquire(ptr nonnull @"_ZGVZZN4pkpy13add_module_ioEPNS_2VMEENK3$_0clES1_NS_8ArgsViewEE8m_FileIO") #26
  %.not5.i = icmp eq i32 %15, 0
  br i1 %.not5.i, label %"_ZZN4pkpy13add_module_ioEPNS_2VMEENK3$_0clES1_NS_8ArgsViewE.exit", label %16

16:                                               ; preds = %14
  %17 = invoke i16 @_ZN4pkpy7StrName3getESt17basic_string_viewIcSt11char_traitsIcEE(i64 6, ptr nonnull @.str.9)
          to label %18 unwind label %21

18:                                               ; preds = %16
  store i16 %17, ptr @"_ZZZN4pkpy13add_module_ioEPNS_2VMEENK3$_0clES1_NS_8ArgsViewEE8m_FileIO.0", align 2
  tail call void @__cxa_guard_release(ptr nonnull @"_ZGVZZN4pkpy13add_module_ioEPNS_2VMEENK3$_0clES1_NS_8ArgsViewEE8m_FileIO") #26
  br label %"_ZZN4pkpy13add_module_ioEPNS_2VMEENK3$_0clES1_NS_8ArgsViewE.exit"

19:                                               ; preds = %8
  %20 = landingpad { ptr, i32 }
          cleanup
  br label %23

21:                                               ; preds = %16
  %22 = landingpad { ptr, i32 }
          cleanup
  br label %23

23:                                               ; preds = %21, %19
  %"_ZGVZZN4pkpy13add_module_ioEPNS_2VMEENK3$_0clES1_NS_8ArgsViewEE8m_FileIO.sink.i" = phi ptr [ @"_ZGVZZN4pkpy13add_module_ioEPNS_2VMEENK3$_0clES1_NS_8ArgsViewEE8m_FileIO", %21 ], [ @"_ZGVZZN4pkpy13add_module_ioEPNS_2VMEENK3$_0clES1_NS_8ArgsViewEE4m_io", %19 ]
  %.pn.i = phi { ptr, i32 } [ %22, %21 ], [ %20, %19 ]
  tail call void @__cxa_guard_abort(ptr nonnull %"_ZGVZZN4pkpy13add_module_ioEPNS_2VMEENK3$_0clES1_NS_8ArgsViewEE8m_FileIO.sink.i") #26
  resume { ptr, i32 } %.pn.i

"_ZZN4pkpy13add_module_ioEPNS_2VMEENK3$_0clES1_NS_8ArgsViewE.exit": ; preds = %11, %14, %18
  %24 = getelementptr inbounds nuw i8, ptr %0, i64 264352
  %.sroa.01.0.copyload.i = load i16, ptr @"_ZZZN4pkpy13add_module_ioEPNS_2VMEENK3$_0clES1_NS_8ArgsViewEE4m_io.0", align 2
  %25 = tail call noundef ptr @_ZNK4pkpy12NameDictImplIPNS_8PyObjectEEixENS_7StrNameE(ptr noundef nonnull align 8 dereferenceable(88) %24, i16 %.sroa.01.0.copyload.i)
  %.sroa.0.0.copyload.i = load i16, ptr @"_ZZZN4pkpy13add_module_ioEPNS_2VMEENK3$_0clES1_NS_8ArgsViewEE8m_FileIO.0", align 2
  %26 = getelementptr inbounds nuw i8, ptr %25, i64 16
  %27 = load ptr, ptr %26, align 8
  %28 = tail call noundef ptr @_ZNK4pkpy12NameDictImplIPNS_8PyObjectEEixENS_7StrNameE(ptr noundef nonnull align 8 dereferenceable(88) %27, i16 %.sroa.0.0.copyload.i)
  %29 = load ptr, ptr %1, align 8
  %30 = getelementptr inbounds nuw i8, ptr %1, i64 8
  %31 = load ptr, ptr %30, align 8
  %32 = getelementptr inbounds nuw i8, ptr %0, i64 264296
  %33 = load ptr, ptr %32, align 8
  %34 = getelementptr inbounds nuw i8, ptr %33, i64 8
  store ptr %34, ptr %32, align 8
  store ptr %28, ptr %33, align 8
  %35 = load ptr, ptr @_ZN4pkpy7PY_NULLE, align 8
  %36 = load ptr, ptr %32, align 8
  %37 = getelementptr inbounds nuw i8, ptr %36, i64 8
  store ptr %37, ptr %32, align 8
  store ptr %35, ptr %36, align 8
  %38 = load ptr, ptr %32, align 8
  %39 = getelementptr inbounds nuw i8, ptr %38, i64 8
  store ptr %39, ptr %32, align 8
  store ptr %29, ptr %38, align 8
  %40 = load ptr, ptr %32, align 8
  %41 = getelementptr inbounds nuw i8, ptr %40, i64 8
  store ptr %41, ptr %32, align 8
  store ptr %31, ptr %40, align 8
  %42 = tail call noundef ptr @_ZN4pkpy2VM10vectorcallEiib(ptr noundef nonnull align 8 dereferenceable(264913) %0, i32 noundef 2, i32 noundef 0, i1 noundef zeroext false)
  ret ptr %42
}